target datalayout = "e-m:e-p270:32:32-p271:32:32-p272:64:64-i64:64-i128:128-f80:128-n8:16:32:64-S128"
target triple = "x86_64-pc-linux-gnu"

@PyExc_OSError = external global ptr, align 8

; Function Attrs: nounwind uwtable
define dso_local i32 @_Py_dup(i32 noundef %0) #0 {
  %2 = alloca i32, align 4
  %3 = alloca i32, align 4
  %4 = alloca ptr, align 8
  store i32 %0, ptr %3, align 4, !tbaa !4
  call void @llvm.lifetime.start.p0(i64 8, ptr %4) #10
  %5 = call ptr @PyEval_SaveThread()
  store ptr %5, ptr %4, align 8, !tbaa !8
  %6 = load i32, ptr %3, align 4, !tbaa !4
  %7 = call i32 (i32, i32, ...) @fcntl64(i32 noundef %6, i32 noundef 1030, i32 noundef 0)
  store i32 %7, ptr %3, align 4, !tbaa !4
  %8 = load ptr, ptr %4, align 8, !tbaa !8
  call void @PyEval_RestoreThread(ptr noundef %8)
  call void @llvm.lifetime.end.p0(i64 8, ptr %4) #10
  %9 = load i32, ptr %3, align 4, !tbaa !4
  %10 = icmp slt i32 %9, 0
  br i1 %10, label %11, label %14

11:                                               ; preds = %1
  %12 = load ptr, ptr @PyExc_OSError, align 8, !tbaa !178
  %13 = call ptr @PyErr_SetFromErrno(ptr noundef %12)
  store i32 -1, ptr %2, align 4
  br label %16

14:                                               ; preds = %1
  %15 = load i32, ptr %3, align 4, !tbaa !4
  store i32 %15, ptr %2, align 4
  br label %16

16:                                               ; preds = %14, %11
  %17 = load i32, ptr %2, align 4
  ret i32 %17
}