; Function Attrs: nounwind uwtable
define dso_local range(i32 -1, -2147483648) i32 @_Py_dup(i32 noundef %0) local_unnamed_addr #0 {
  %2 = tail call ptr @PyEval_SaveThread() #17
  %3 = tail call i32 (i32, i32, ...) @fcntl64(i32 noundef %0, i32 noundef 1030, i32 noundef 0) #17
  tail call void @PyEval_RestoreThread(ptr noundef %2) #17
  %4 = icmp slt i32 %3, 0
  br i1 %4, label %5, label %8

5:                                                ; preds = %1
  %6 = load ptr, ptr @PyExc_OSError, align 8, !tbaa !188
  %7 = tail call ptr @PyErr_SetFromErrno(ptr noundef %6) #17
  br label %8

8:                                                ; preds = %1, %5
  %.0 = phi i32 [ -1, %5 ], [ %3, %1 ]
  ret i32 %.0
}